; Function Attrs: nounwind uwtable
define void @png_app_warning(ptr noalias noundef %0, ptr noundef %1) local_unnamed_addr #5 {
  %3 = getelementptr inbounds nuw i8, ptr %0, i64 304
  %4 = load i32, ptr %3, align 8, !tbaa !36
  %5 = and i32 %4, 2097152
  %.not = icmp eq i32 %5, 0
  br i1 %.not, label %18, label %6

6:                                                ; preds = %2
  tail call void @llvm.experimental.noalias.scope.decl(metadata !47)
  %7 = load i8, ptr %1, align 1, !tbaa !24, !noalias !47
  %8 = icmp eq i8 %7, 35
  br i1 %8, label %.preheader.i, label %.thread20.i

.preheader.i:                                     ; preds = %6, %12
  %indvars.iv.i = phi i64 [ %indvars.iv.next.i, %12 ], [ 1, %6 ]
  %9 = getelementptr inbounds nuw i8, ptr %1, i64 %indvars.iv.i
  %10 = load i8, ptr %9, align 1, !tbaa !24, !noalias !47
  %11 = icmp eq i8 %10, 32
  br i1 %11, label %.thread20.loopexit.i, label %12

12:                                               ; preds = %.preheader.i
  %indvars.iv.next.i = add nuw nsw i64 %indvars.iv.i, 1
  %exitcond.not.i = icmp eq i64 %indvars.iv.next.i, 15
  br i1 %exitcond.not.i, label %.thread20.loopexit.i, label %.preheader.i, !llvm.loop !28

.thread20.loopexit.i:                             ; preds = %12, %.preheader.i
  %.022.ph.i = phi i64 [ 15, %12 ], [ %indvars.iv.i, %.preheader.i ]
  %13 = and i64 %.022.ph.i, 4294967295
  br label %.thread20.i

.thread20.i:                                      ; preds = %.thread20.loopexit.i, %6
  %.022.i = phi i64 [ 0, %6 ], [ %13, %.thread20.loopexit.i ]
  %14 = getelementptr inbounds nuw i8, ptr %0, i64 232
  %15 = load ptr, ptr %14, align 8, !tbaa !29, !alias.scope !47
  %.not17.i = icmp eq ptr %15, null
  %16 = getelementptr inbounds nuw i8, ptr %1, i64 %.022.i
  br i1 %.not17.i, label %.split14.i, label %17

.split14.i:                                       ; preds = %.thread20.i
  tail call fastcc void @png_default_warning(ptr noundef nonnull %16)
  br label %png_warning.exit

17:                                               ; preds = %.thread20.i
  tail call void %15(ptr noundef nonnull %0, ptr noundef nonnull %16) #21
  br label %png_warning.exit

png_warning.exit:                                 ; preds = %.split14.i, %17
  ret void

18:                                               ; preds = %2
  tail call void @png_error(ptr noundef nonnull %0, ptr noundef %1) #22
  unreachable
}